target datalayout = "e-m:e-p270:32:32-p271:32:32-p272:64:64-i64:64-i128:128-f80:128-n8:16:32:64-S128"
target triple = "x86_64-pc-linux-gnu"

@.str.234 = private unnamed_addr constant [17 x i8] c"LoRaWAN Protocol\00", align 1
@.str.235 = private unnamed_addr constant [8 x i8] c"LoRaWAN\00", align 1
@.str.236 = private unnamed_addr constant [8 x i8] c"lorawan\00", align 1
@proto_lorawan = internal global i32 0, align 4
@lorawan_handle = internal global ptr null, align 8
@.str.252 = private unnamed_addr constant [18 x i8] c"LoRaWAN Root Keys\00", align 1
@.str.253 = private unnamed_addr constant [18 x i8] c"root_keys_lorawan\00", align 1
@root_keys = internal global ptr null, align 8
@root_num_keys = internal global i32 0, align 4
@.str.254 = private unnamed_addr constant [21 x i8] c"LoRaWAN Session Keys\00", align 1
@.str.255 = private unnamed_addr constant [21 x i8] c"session_keys_lorawan\00", align 1
@session_keys = internal global ptr null, align 8
@session_num_keys = internal global i32 0, align 4
@.str.256 = private unnamed_addr constant [89 x i8] c"A table to define root encryption keys for LoRaWAN devices, used for Join Request/Accept\00", align 1
@.str.257 = private unnamed_addr constant [85 x i8] c"A table to define session encryption keys for LoRaWAN devices, used for Data Up/Down\00", align 1

; Function Attrs: null_pointer_is_valid sspstrong uwtable
define hidden void @proto_register_lorawan() #0 {
  %1 = alloca ptr, align 8
  %2 = alloca ptr, align 8
  %3 = alloca ptr, align 8
  %4 = alloca ptr, align 8
  call void @llvm.lifetime.start.p0(i64 8, ptr %1) #10
  %5 = call i32 @proto_register_protocol(ptr noundef @.str.234, ptr noundef @.str.235, ptr noundef @.str.236)
  store i32 %5, ptr @proto_lorawan, align 4
  %6 = load i32, ptr @proto_lorawan, align 4
  %7 = call ptr @register_dissector(ptr noundef @.str.236, ptr noundef @dissect_lorawan, i32 noundef %6)
  store ptr %7, ptr @lorawan_handle, align 8
  %8 = load i32, ptr @proto_lorawan, align 4
  call void @proto_register_field_array(i32 noundef %8, ptr noundef @proto_register_lorawan.hf, i32 noundef 100)
  call void @proto_register_subtree_array(ptr noundef @proto_register_lorawan.ett, i32 noundef 16)
  %9 = load i32, ptr @proto_lorawan, align 4
  %10 = call ptr @expert_register_protocol(i32 noundef %9)
  store ptr %10, ptr %1, align 8
  %11 = load ptr, ptr %1, align 8
  call void @expert_register_field_array(ptr noundef %11, ptr noundef @proto_register_lorawan.ei, i32 noundef 5)
  call void @llvm.lifetime.start.p0(i64 8, ptr %2) #10
  %12 = call ptr @uat_new(ptr noundef @.str.252, i64 noundef 32, ptr noundef @.str.253, i1 noundef zeroext true, ptr noundef @root_keys, ptr noundef @root_num_keys, i32 noundef 3, ptr noundef null, ptr noundef @root_keys_copy_cb, ptr noundef @root_keys_update_cb, ptr noundef @root_keys_free_cb, ptr noundef null, ptr noundef null, ptr noundef @proto_register_lorawan.root_keys_uat_fields)
  store ptr %12, ptr %2, align 8
  call void @llvm.lifetime.start.p0(i64 8, ptr %3) #10
  %13 = call ptr @uat_new(ptr noundef @.str.254, i64 noundef 48, ptr noundef @.str.255, i1 noundef zeroext true, ptr noundef @session_keys, ptr noundef @session_num_keys, i32 noundef 3, ptr noundef null, ptr noundef @session_keys_copy_cb, ptr noundef @session_keys_update_cb, ptr noundef @session_keys_free_cb, ptr noundef null, ptr noundef null, ptr noundef @proto_register_lorawan.session_keys_uat_fields)
  store ptr %13, ptr %3, align 8
  call void @llvm.lifetime.start.p0(i64 8, ptr %4) #10
  %14 = load i32, ptr @proto_lorawan, align 4
  %15 = call ptr @prefs_register_protocol(i32 noundef %14, ptr noundef null)
  store ptr %15, ptr %4, align 8
  %16 = load ptr, ptr %4, align 8
  %17 = load ptr, ptr %2, align 8
  call void @prefs_register_uat_preference(ptr noundef %16, ptr noundef @.str.253, ptr noundef @.str.252, ptr noundef @.str.256, ptr noundef %17)
  %18 = load ptr, ptr %4, align 8
  %19 = load ptr, ptr %3, align 8
  call void @prefs_register_uat_preference(ptr noundef %18, ptr noundef @.str.255, ptr noundef @.str.254, ptr noundef @.str.257, ptr noundef %19)
  call void @llvm.lifetime.end.p0(i64 8, ptr %4) #10
  call void @llvm.lifetime.end.p0(i64 8, ptr %3) #10
  call void @llvm.lifetime.end.p0(i64 8, ptr %2) #10
  call void @llvm.lifetime.end.p0(i64 8, ptr %1) #10
  ret void
}