; Function Attrs: null_pointer_is_valid sspstrong uwtable
define hidden void @proto_register_lorawan() local_unnamed_addr #0 {
  %1 = tail call i32 @proto_register_protocol(ptr noundef nonnull @.str.234, ptr noundef nonnull @.str.235, ptr noundef nonnull @.str.236)
  store i32 %1, ptr @proto_lorawan, align 4
  %2 = tail call ptr @register_dissector(ptr noundef nonnull @.str.236, ptr noundef nonnull @dissect_lorawan, i32 noundef %1)
  store ptr %2, ptr @lorawan_handle, align 8
  %3 = load i32, ptr @proto_lorawan, align 4
  tail call void @proto_register_field_array(i32 noundef %3, ptr noundef nonnull @proto_register_lorawan.hf, i32 noundef 100)
  tail call void @proto_register_subtree_array(ptr noundef nonnull @proto_register_lorawan.ett, i32 noundef 16)
  %4 = load i32, ptr @proto_lorawan, align 4
  %5 = tail call ptr @expert_register_protocol(i32 noundef %4)
  tail call void @expert_register_field_array(ptr noundef %5, ptr noundef nonnull @proto_register_lorawan.ei, i32 noundef 5)
  %6 = tail call ptr @uat_new(ptr noundef nonnull @.str.252, i64 noundef 32, ptr noundef nonnull @.str.253, i1 noundef zeroext true, ptr noundef nonnull @root_keys, ptr noundef nonnull @root_num_keys, i32 noundef 3, ptr noundef null, ptr noundef nonnull @root_keys_copy_cb, ptr noundef nonnull @root_keys_update_cb, ptr noundef nonnull @root_keys_free_cb, ptr noundef null, ptr noundef null, ptr noundef nonnull @proto_register_lorawan.root_keys_uat_fields)
  %7 = tail call ptr @uat_new(ptr noundef nonnull @.str.254, i64 noundef 48, ptr noundef nonnull @.str.255, i1 noundef zeroext true, ptr noundef nonnull @session_keys, ptr noundef nonnull @session_num_keys, i32 noundef 3, ptr noundef null, ptr noundef nonnull @session_keys_copy_cb, ptr noundef nonnull @session_keys_update_cb, ptr noundef nonnull @session_keys_free_cb, ptr noundef null, ptr noundef null, ptr noundef nonnull @proto_register_lorawan.session_keys_uat_fields)
  %8 = load i32, ptr @proto_lorawan, align 4
  %9 = tail call ptr @prefs_register_protocol(i32 noundef %8, ptr noundef null)
  tail call void @prefs_register_uat_preference(ptr noundef %9, ptr noundef nonnull @.str.253, ptr noundef nonnull @.str.252, ptr noundef nonnull @.str.256, ptr noundef %6)
  tail call void @prefs_register_uat_preference(ptr noundef %9, ptr noundef nonnull @.str.255, ptr noundef nonnull @.str.254, ptr noundef nonnull @.str.257, ptr noundef %7)
  ret void
}